target datalayout = "e-m:e-p270:32:32-p271:32:32-p272:64:64-i64:64-i128:128-f80:128-n8:16:32:64-S128"
target triple = "x86_64-pc-linux-gnu"

%"class.pxrInternal_v0_24__pxrReserved__::pxr_half::half" = type { i16 }

; Function Attrs: mustprogress nounwind uwtable
define linkonce_odr void @_ZSt4swapIN32pxrInternal_v0_24__pxrReserved__8pxr_half4halfEENSt9enable_ifIXsr6__and_ISt6__not_ISt15__is_tuple_likeIT_EESt21is_move_constructibleIS6_ESt18is_move_assignableIS6_EEE5valueEvE4typeERS6_SF_(ptr noundef nonnull align 2 dereferenceable(2) %0, ptr noundef nonnull align 2 dereferenceable(2) %1) #2 comdat {
  %3 = alloca ptr, align 8
  %4 = alloca ptr, align 8
  %5 = alloca %"class.pxrInternal_v0_24__pxrReserved__::pxr_half::half", align 2
  store ptr %0, ptr %3, align 8
  store ptr %1, ptr %4, align 8
  %6 = load ptr, ptr %3, align 8
  call void @llvm.memcpy.p0.p0.i64(ptr align 2 %5, ptr align 2 %6, i64 2, i1 false)
  %7 = load ptr, ptr %4, align 8
  %8 = load ptr, ptr %3, align 8
  call void @llvm.memcpy.p0.p0.i64(ptr align 2 %8, ptr align 2 %7, i64 2, i1 false)
  %9 = load ptr, ptr %4, align 8
  call void @llvm.memcpy.p0.p0.i64(ptr align 2 %9, ptr align 2 %5, i64 2, i1 false)
  ret void
}

; Function Attrs: mustprogress nounwind uwtable
define linkonce_odr void @_ZSt9iter_swapIPN32pxrInternal_v0_24__pxrReserved__8pxr_half4halfES3_EvT_T0_(ptr noundef %0, ptr noundef %1) #2 comdat {
  %3 = alloca ptr, align 8
  %4 = alloca ptr, align 8
  store ptr %0, ptr %3, align 8
  store ptr %1, ptr %4, align 8
  %5 = load ptr, ptr %3, align 8
  %6 = load ptr, ptr %4, align 8
  call void @_ZSt4swapIN32pxrInternal_v0_24__pxrReserved__8pxr_half4halfEENSt9enable_ifIXsr6__and_ISt6__not_ISt15__is_tuple_likeIT_EESt21is_move_constructibleIS6_ESt18is_move_assignableIS6_EEE5valueEvE4typeERS6_SF_(ptr noundef nonnull align 2 dereferenceable(2) %5, ptr noundef nonnull align 2 dereferenceable(2) %6) #9
  ret void
}

; Function Attrs: mustprogress uwtable
define linkonce_odr noundef ptr @_ZSt11swap_rangesIPN32pxrInternal_v0_24__pxrReserved__8pxr_half4halfES3_ET0_T_S5_S4_(ptr noundef %0, ptr noundef %1, ptr noundef %2) #0 comdat {
  %4 = alloca ptr, align 8
  %5 = alloca ptr, align 8
  %6 = alloca ptr, align 8
  store ptr %0, ptr %4, align 8
  store ptr %1, ptr %5, align 8
  store ptr %2, ptr %6, align 8
  br label %7

7:                                                ; preds = %14, %3
  %8 = load ptr, ptr %4, align 8
  %9 = load ptr, ptr %5, align 8
  %10 = icmp ne ptr %8, %9
  br i1 %10, label %11, label %19

11:                                               ; preds = %7
  %12 = load ptr, ptr %4, align 8
  %13 = load ptr, ptr %6, align 8
  call void @_ZSt9iter_swapIPN32pxrInternal_v0_24__pxrReserved__8pxr_half4halfES3_EvT_T0_(ptr noundef %12, ptr noundef %13)
  br label %14

14:                                               ; preds = %11
  %15 = load ptr, ptr %4, align 8
  %16 = getelementptr inbounds %"class.pxrInternal_v0_24__pxrReserved__::pxr_half::half", ptr %15, i32 1
  store ptr %16, ptr %4, align 8
  %17 = load ptr, ptr %6, align 8
  %18 = getelementptr inbounds %"class.pxrInternal_v0_24__pxrReserved__::pxr_half::half", ptr %17, i32 1
  store ptr %18, ptr %6, align 8
  br label %7, !llvm.loop !27

19:                                               ; preds = %7
  %20 = load ptr, ptr %6, align 8
  ret ptr %20
}

; Function Attrs: mustprogress uwtable
define internal void @_ZN32pxrInternal_v0_24__pxrReserved__12_GLOBAL__N_114ImageProcessorINS_8pxr_half4halfEE9FlipImageEPS3_iii(ptr noundef %0, i32 noundef %1, i32 noundef %2, i32 noundef %3) #0 align 2 {
  %5 = alloca ptr, align 8
  %6 = alloca i32, align 4
  %7 = alloca i32, align 4
  %8 = alloca i32, align 4
  %9 = alloca i32, align 4
  store ptr %0, ptr %5, align 8
  store i32 %1, ptr %6, align 4
  store i32 %2, ptr %7, align 4
  store i32 %3, ptr %8, align 4
  store i32 0, ptr %9, align 4
  br label %10

10:                                               ; preds = %45, %4
  %11 = load i32, ptr %9, align 4
  %12 = load i32, ptr %7, align 4
  %13 = sdiv i32 %12, 2
  %14 = icmp slt i32 %11, %13
  br i1 %14, label %15, label %48

15:                                               ; preds = %10
  %16 = load ptr, ptr %5, align 8
  %17 = load i32, ptr %9, align 4
  %18 = load i32, ptr %6, align 4
  %19 = mul nsw i32 %17, %18
  %20 = load i32, ptr %8, align 4
  %21 = mul nsw i32 %19, %20
  %22 = sext i32 %21 to i64
  %23 = getelementptr inbounds %"class.pxrInternal_v0_24__pxrReserved__::pxr_half::half", ptr %16, i64 %22
  %24 = load ptr, ptr %5, align 8
  %25 = load i32, ptr %9, align 4
  %26 = add nsw i32 %25, 1
  %27 = load i32, ptr %6, align 4
  %28 = mul nsw i32 %26, %27
  %29 = load i32, ptr %8, align 4
  %30 = mul nsw i32 %28, %29
  %31 = sext i32 %30 to i64
  %32 = getelementptr inbounds %"class.pxrInternal_v0_24__pxrReserved__::pxr_half::half", ptr %24, i64 %31
  %33 = load ptr, ptr %5, align 8
  %34 = load i32, ptr %7, align 4
  %35 = load i32, ptr %9, align 4
  %36 = sub nsw i32 %34, %35
  %37 = sub nsw i32 %36, 1
  %38 = load i32, ptr %6, align 4
  %39 = mul nsw i32 %37, %38
  %40 = load i32, ptr %8, align 4
  %41 = mul nsw i32 %39, %40
  %42 = sext i32 %41 to i64
  %43 = getelementptr inbounds %"class.pxrInternal_v0_24__pxrReserved__::pxr_half::half", ptr %33, i64 %42
  %44 = call noundef ptr @_ZSt11swap_rangesIPN32pxrInternal_v0_24__pxrReserved__8pxr_half4halfES3_ET0_T_S5_S4_(ptr noundef %23, ptr noundef %32, ptr noundef %43)
  br label %45

45:                                               ; preds = %15
  %46 = load i32, ptr %9, align 4
  %47 = add nsw i32 %46, 1
  store i32 %47, ptr %9, align 4
  br label %10, !llvm.loop !8

48:                                               ; preds = %10
  ret void
}