; Function Attrs: mustprogress nofree norecurse nosync nounwind memory(argmem: readwrite) uwtable
define internal fastcc void @_ZN32pxrInternal_v0_24__pxrReserved__12_GLOBAL__N_114ImageProcessorINS_8pxr_half4halfEE9FlipImageEPS3_iii(ptr noundef %0, i32 noundef %1, i32 noundef %2, i32 noundef %3) unnamed_addr #5 align 2 {
  %5 = icmp sgt i32 %2, 1
  br i1 %5, label %.lr.ph, label %._crit_edge

.lr.ph:                                           ; preds = %4
  %6 = lshr i32 %2, 1
  %7 = mul i32 %3, %1
  %wide.trip.count = zext nneg i32 %6 to i64
  br label %8

8:                                                ; preds = %.lr.ph, %_ZSt11swap_rangesIPN32pxrInternal_v0_24__pxrReserved__8pxr_half4halfES3_ET0_T_S5_S4_.exit
  %indvars.iv = phi i64 [ 0, %.lr.ph ], [ %indvars.iv.next, %_ZSt11swap_rangesIPN32pxrInternal_v0_24__pxrReserved__8pxr_half4halfES3_ET0_T_S5_S4_.exit ]
  %9 = trunc nuw nsw i64 %indvars.iv to i32
  %10 = mul i32 %7, %9
  %indvars.iv.next = add nuw nsw i64 %indvars.iv, 1
  %11 = trunc nuw nsw i64 %indvars.iv.next to i32
  %12 = mul i32 %7, %11
  %13 = sext i32 %12 to i64
  %14 = getelementptr inbounds %"class.pxrInternal_v0_24__pxrReserved__::pxr_half::half", ptr %0, i64 %13
  %.not8.i = icmp eq i32 %10, %12
  br i1 %.not8.i, label %_ZSt11swap_rangesIPN32pxrInternal_v0_24__pxrReserved__8pxr_half4halfES3_ET0_T_S5_S4_.exit, label %.lr.ph.i.preheader

.lr.ph.i.preheader:                               ; preds = %8
  %15 = trunc i64 %indvars.iv to i32
  %16 = xor i32 %15, -1
  %17 = add i32 %2, %16
  %18 = mul i32 %7, %17
  %19 = sext i32 %18 to i64
  %20 = getelementptr inbounds %"class.pxrInternal_v0_24__pxrReserved__::pxr_half::half", ptr %0, i64 %19
  %21 = sext i32 %10 to i64
  %22 = getelementptr inbounds %"class.pxrInternal_v0_24__pxrReserved__::pxr_half::half", ptr %0, i64 %21
  br label %.lr.ph.i

.lr.ph.i:                                         ; preds = %.lr.ph.i.preheader, %.lr.ph.i
  %.010.i = phi ptr [ %25, %.lr.ph.i ], [ %20, %.lr.ph.i.preheader ]
  %.079.i = phi ptr [ %24, %.lr.ph.i ], [ %22, %.lr.ph.i.preheader ]
  %.sroa.0.0.copyload.i.i.i = load i16, ptr %.079.i, align 2
  %23 = load i16, ptr %.010.i, align 2
  store i16 %23, ptr %.079.i, align 2
  store i16 %.sroa.0.0.copyload.i.i.i, ptr %.010.i, align 2
  %24 = getelementptr inbounds i8, ptr %.079.i, i64 2
  %25 = getelementptr inbounds i8, ptr %.010.i, i64 2
  %.not.i = icmp eq ptr %24, %14
  br i1 %.not.i, label %_ZSt11swap_rangesIPN32pxrInternal_v0_24__pxrReserved__8pxr_half4halfES3_ET0_T_S5_S4_.exit, label %.lr.ph.i, !llvm.loop !10

_ZSt11swap_rangesIPN32pxrInternal_v0_24__pxrReserved__8pxr_half4halfES3_ET0_T_S5_S4_.exit: ; preds = %.lr.ph.i, %8
  %exitcond.not = icmp eq i64 %indvars.iv.next, %wide.trip.count
  br i1 %exitcond.not, label %._crit_edge, label %8, !llvm.loop !11

._crit_edge:                                      ; preds = %_ZSt11swap_rangesIPN32pxrInternal_v0_24__pxrReserved__8pxr_half4halfES3_ET0_T_S5_S4_.exit, %4
  ret void
}